target datalayout = "e-m:e-p270:32:32-p271:32:32-p272:64:64-i64:64-i128:128-f80:128-n8:16:32:64-S128"
target triple = "x86_64-pc-linux-gnu"

%struct._zend_array = type { %struct._zend_refcounted_h, %union.anon.0, i32, %union.anon.1, i32, i32, i32, i32, i64, ptr }
%struct._zend_refcounted_h = type { i32, %union.anon }
%union.anon = type { i32 }
%union.anon.0 = type { i32 }
%union.anon.1 = type { ptr }
%struct._zend_executor_globals = type { %struct._zval_struct, %struct._zval_struct, [32 x ptr], ptr, ptr, %struct._zend_array, %struct._zend_array, ptr, i32, i8, %struct._zval_struct, i32, ptr, ptr, ptr, ptr, ptr, ptr, i64, ptr, ptr, i32, ptr, i32, i64, i32, i32, i32, i8, i8, %struct.zend_atomic_bool_s, %struct.zend_atomic_bool_s, ptr, i64, ptr, ptr, %struct._zend_array, %struct._zend_array, i32, i8, %struct._zval_struct, %struct._zval_struct, %struct._zend_stack, %struct._zend_stack, %struct._zend_stack, ptr, i32, i32, i64, ptr, ptr, ptr, %struct._zend_objects_store, %struct._zend_lazy_objects_store, ptr, ptr, ptr, [3 x %struct._zend_op], ptr, i8, i8, i64, i32, i32, ptr, [16 x %struct._HashTableIterator], ptr, %union._zend_function, %struct._zend_op, %struct._zend_array, i64, %struct.zend_get_gc_buffer, ptr, ptr, ptr, i64, i8, i32, ptr, ptr, i64, %struct._zend_call_stack, i64, i64, %struct._zend_strtod_state, [6 x ptr] }
%struct.zend_atomic_bool_s = type { i8 }
%struct._zval_struct = type { %union._zend_value, %union.anon.3, %union.anon.6 }
%union._zend_value = type { i64 }
%union.anon.3 = type { i32 }
%union.anon.6 = type { i32 }
%struct._zend_stack = type { i32, i32, i32, ptr }
%struct._zend_objects_store = type { ptr, i32, i32, i32 }
%struct._zend_lazy_objects_store = type { %struct._zend_array }
%struct._HashTableIterator = type { ptr, i32, i32 }
%union._zend_function = type { %struct._zend_op_array }
%struct._zend_op_array = type { i8, [3 x i8], i32, ptr, ptr, ptr, i32, i32, ptr, ptr, ptr, ptr, i32, ptr, i32, i32, i32, ptr, ptr, ptr, ptr, ptr, i32, i32, ptr, ptr, ptr, i32, i32, i32, i32, ptr, ptr, [6 x ptr] }
%struct._zend_op = type { ptr, %union._znode_op, %union._znode_op, %union._znode_op, i32, i32, i8, i8, i8, i8 }
%union._znode_op = type { i32 }
%struct.zend_get_gc_buffer = type { ptr, ptr, ptr }
%struct._zend_call_stack = type { ptr, i64 }
%struct._zend_strtod_state = type { [8 x ptr], ptr, ptr }
%struct._zend_string = type { %struct._zend_refcounted_h, i64, i64, [1 x i8] }
%struct.anon.4 = type { i8, i8, %union.anon.5 }
%union.anon.5 = type { i16 }
%struct._zend_execute_data = type { ptr, ptr, ptr, ptr, %struct._zval_struct, ptr, ptr, ptr, ptr }
%struct._Bucket = type { %struct._zval_struct, i64, ptr }

@php_hash_hashtable = internal global %struct._zend_array zeroinitializer, align 8
@executor_globals = external global %struct._zend_executor_globals, align 8

; Function Attrs: alwaysinline nounwind uwtable
define internal i32 @zend_gc_addref(ptr noundef %0) #2 {
  %2 = alloca ptr, align 8
  store ptr %0, ptr %2, align 8, !tbaa !144
  br label %3

3:                                                ; preds = %1
  br label %4

4:                                                ; preds = %3
  %5 = load ptr, ptr %2, align 8, !tbaa !144
  %6 = getelementptr inbounds nuw %struct._zend_refcounted_h, ptr %5, i32 0, i32 0
  %7 = load i32, ptr %6, align 4, !tbaa !146
  %8 = add i32 %7, 1
  store i32 %8, ptr %6, align 4, !tbaa !146
  ret i32 %8
}

; Function Attrs: alwaysinline nounwind uwtable
define internal i32 @zval_gc_flags(i32 noundef %0) #2 {
  %2 = alloca i32, align 4
  store i32 %0, ptr %2, align 4, !tbaa !47
  %3 = load i32, ptr %2, align 4, !tbaa !47
  %4 = lshr i32 %3, 0
  %5 = and i32 %4, 1008
  ret i32 %5
}

; Function Attrs: alwaysinline nounwind uwtable
define internal ptr @zend_string_copy(ptr noundef %0) #2 {
  %2 = alloca ptr, align 8
  store ptr %0, ptr %2, align 8, !tbaa !4
  %3 = load ptr, ptr %2, align 8, !tbaa !4
  %4 = getelementptr inbounds nuw %struct._zend_string, ptr %3, i32 0, i32 0
  %5 = getelementptr inbounds nuw %struct._zend_refcounted_h, ptr %4, i32 0, i32 1
  %6 = load i32, ptr %5, align 4, !tbaa !15
  %7 = call i32 @zval_gc_flags(i32 noundef %6)
  %8 = and i32 %7, 64
  %9 = icmp ne i32 %8, 0
  br i1 %9, label %14, label %10

10:                                               ; preds = %1
  %11 = load ptr, ptr %2, align 8, !tbaa !4
  %12 = getelementptr inbounds nuw %struct._zend_string, ptr %11, i32 0, i32 0
  %13 = call i32 @zend_gc_addref(ptr noundef %12)
  br label %14

14:                                               ; preds = %10, %1
  %15 = load ptr, ptr %2, align 8, !tbaa !4
  ret ptr %15
}

; Function Attrs: alwaysinline nounwind uwtable
define internal zeroext i8 @zval_get_type(ptr noundef %0) #2 {
  %2 = alloca ptr, align 8
  store ptr %0, ptr %2, align 8, !tbaa !13
  %3 = load ptr, ptr %2, align 8, !tbaa !13
  %4 = getelementptr inbounds nuw %struct._zval_struct, ptr %3, i32 0, i32 1
  %5 = getelementptr inbounds nuw %struct.anon.4, ptr %4, i32 0, i32 0
  %6 = load i8, ptr %5, align 8, !tbaa !15
  ret i8 %6
}

; Function Attrs: nounwind uwtable
define hidden void @zif_hash_algos(ptr noundef %0, ptr noundef %1) #0 {
  %3 = alloca ptr, align 8
  %4 = alloca ptr, align 8
  %5 = alloca ptr, align 8
  %6 = alloca i32, align 4
  %7 = alloca ptr, align 8
  %8 = alloca ptr, align 8
  %9 = alloca ptr, align 8
  %10 = alloca ptr, align 8
  %11 = alloca ptr, align 8
  %12 = alloca ptr, align 8
  store ptr %0, ptr %3, align 8, !tbaa !51
  store ptr %1, ptr %4, align 8, !tbaa !13
  call void @llvm.lifetime.start.p0(i64 8, ptr %5) #16
  %13 = load ptr, ptr %3, align 8, !tbaa !51
  %14 = getelementptr inbounds nuw %struct._zend_execute_data, ptr %13, i32 0, i32 4
  %15 = getelementptr inbounds nuw %struct._zval_struct, ptr %14, i32 0, i32 2
  %16 = load i32, ptr %15, align 4, !tbaa !15
  %17 = icmp eq i32 %16, 0
  %18 = xor i1 %17, true
  %19 = xor i1 %18, true
  %20 = zext i1 %19 to i32
  %21 = sext i32 %20 to i64
  %22 = call i64 @llvm.expect.i64(i64 %21, i64 1)
  %23 = icmp ne i64 %22, 0
  br i1 %23, label %24, label %25

24:                                               ; preds = %2
  br label %26

25:                                               ; preds = %2
  call void @zend_wrong_parameters_none_error()
  br label %26

26:                                               ; preds = %25, %24
  %27 = phi i32 [ 0, %24 ], [ -1, %25 ]
  %28 = icmp eq i32 %27, -1
  br i1 %28, label %29, label %35

29:                                               ; preds = %26
  br label %30

30:                                               ; preds = %29
  %31 = load ptr, ptr getelementptr inbounds nuw (%struct._zend_executor_globals, ptr @executor_globals, i32 0, i32 54), align 8, !tbaa !67
  %32 = icmp ne ptr %31, null
  call void @llvm.assume(i1 %32)
  store i32 1, ptr %6, align 4
  br label %100

33:                                               ; No predecessors!
  br label %34

34:                                               ; preds = %33
  br label %35

35:                                               ; preds = %34, %26
  br label %36

36:                                               ; preds = %35
  call void @llvm.lifetime.start.p0(i64 8, ptr %7) #16
  %37 = call ptr @_zend_new_array_0()
  store ptr %37, ptr %7, align 8, !tbaa !11
  call void @llvm.lifetime.start.p0(i64 8, ptr %8) #16
  %38 = load ptr, ptr %4, align 8, !tbaa !13
  store ptr %38, ptr %8, align 8, !tbaa !13
  %39 = load ptr, ptr %7, align 8, !tbaa !11
  %40 = load ptr, ptr %8, align 8, !tbaa !13
  %41 = getelementptr inbounds nuw %struct._zval_struct, ptr %40, i32 0, i32 0
  store ptr %39, ptr %41, align 8, !tbaa !15
  %42 = load ptr, ptr %8, align 8, !tbaa !13
  %43 = getelementptr inbounds nuw %struct._zval_struct, ptr %42, i32 0, i32 1
  store i32 775, ptr %43, align 8, !tbaa !15
  call void @llvm.lifetime.end.p0(i64 8, ptr %8) #16
  call void @llvm.lifetime.end.p0(i64 8, ptr %7) #16
  br label %44

44:                                               ; preds = %36
  br label %45

45:                                               ; preds = %44
  br label %46

46:                                               ; preds = %45
  call void @llvm.lifetime.start.p0(i64 8, ptr %9) #16
  store ptr @php_hash_hashtable, ptr %9, align 8, !tbaa !11
  call void @llvm.lifetime.start.p0(i64 8, ptr %10) #16
  %47 = load ptr, ptr %9, align 8, !tbaa !11
  %48 = getelementptr inbounds nuw %struct._zend_array, ptr %47, i32 0, i32 3
  %49 = load ptr, ptr %48, align 8, !tbaa !15
  %50 = getelementptr inbounds %struct._Bucket, ptr %49, i64 0
  store ptr %50, ptr %10, align 8, !tbaa !105
  call void @llvm.lifetime.start.p0(i64 8, ptr %11) #16
  %51 = load ptr, ptr %9, align 8, !tbaa !11
  %52 = getelementptr inbounds nuw %struct._zend_array, ptr %51, i32 0, i32 3
  %53 = load ptr, ptr %52, align 8, !tbaa !15
  %54 = load ptr, ptr %9, align 8, !tbaa !11
  %55 = getelementptr inbounds nuw %struct._zend_array, ptr %54, i32 0, i32 4
  %56 = load i32, ptr %55, align 8, !tbaa !107
  %57 = zext i32 %56 to i64
  %58 = getelementptr inbounds nuw %struct._Bucket, ptr %53, i64 %57
  store ptr %58, ptr %11, align 8, !tbaa !105
  %59 = load ptr, ptr %9, align 8, !tbaa !11
  %60 = getelementptr inbounds nuw %struct._zend_array, ptr %59, i32 0, i32 1
  %61 = load i32, ptr %60, align 8, !tbaa !15
  %62 = and i32 %61, 4
  %63 = icmp ne i32 %62, 0
  %64 = xor i1 %63, true
  call void @llvm.assume(i1 %64)
  br label %65

65:                                               ; preds = %94, %46
  %66 = load ptr, ptr %10, align 8, !tbaa !105
  %67 = load ptr, ptr %11, align 8, !tbaa !105
  %68 = icmp ne ptr %66, %67
  br i1 %68, label %69, label %97

69:                                               ; preds = %65
  call void @llvm.lifetime.start.p0(i64 8, ptr %12) #16
  %70 = load ptr, ptr %10, align 8, !tbaa !105
  %71 = getelementptr inbounds nuw %struct._Bucket, ptr %70, i32 0, i32 0
  store ptr %71, ptr %12, align 8, !tbaa !13
  %72 = load ptr, ptr %12, align 8, !tbaa !13
  %73 = call zeroext i8 @zval_get_type(ptr noundef %72)
  %74 = zext i8 %73 to i32
  %75 = icmp eq i32 %74, 0
  %76 = xor i1 %75, true
  %77 = xor i1 %76, true
  %78 = zext i1 %77 to i32
  %79 = sext i32 %78 to i64
  %80 = call i64 @llvm.expect.i64(i64 %79, i64 0)
  %81 = icmp ne i64 %80, 0
  br i1 %81, label %82, label %83

82:                                               ; preds = %69
  store i32 10, ptr %6, align 4
  br label %91

83:                                               ; preds = %69
  %84 = load ptr, ptr %10, align 8, !tbaa !105
  %85 = getelementptr inbounds nuw %struct._Bucket, ptr %84, i32 0, i32 2
  %86 = load ptr, ptr %85, align 8, !tbaa !108
  store ptr %86, ptr %5, align 8, !tbaa !4
  %87 = load ptr, ptr %4, align 8, !tbaa !13
  %88 = load ptr, ptr %5, align 8, !tbaa !4
  %89 = call ptr @zend_string_copy(ptr noundef %88)
  %90 = call i32 @add_next_index_str(ptr noundef %87, ptr noundef %89)
  store i32 0, ptr %6, align 4
  br label %91

91:                                               ; preds = %83, %82
  call void @llvm.lifetime.end.p0(i64 8, ptr %12) #16
  %92 = load i32, ptr %6, align 4
  switch i32 %92, label %103 [
    i32 0, label %93
    i32 10, label %94
  ]

93:                                               ; preds = %91
  br label %94

94:                                               ; preds = %93, %91
  %95 = load ptr, ptr %10, align 8, !tbaa !105
  %96 = getelementptr inbounds nuw %struct._Bucket, ptr %95, i32 1
  store ptr %96, ptr %10, align 8, !tbaa !105
  br label %65

97:                                               ; preds = %65
  call void @llvm.lifetime.end.p0(i64 8, ptr %11) #16
  call void @llvm.lifetime.end.p0(i64 8, ptr %10) #16
  call void @llvm.lifetime.end.p0(i64 8, ptr %9) #16
  br label %98

98:                                               ; preds = %97
  br label %99

99:                                               ; preds = %98
  store i32 0, ptr %6, align 4
  br label %100

100:                                              ; preds = %99, %30
  call void @llvm.lifetime.end.p0(i64 8, ptr %5) #16
  %101 = load i32, ptr %6, align 4
  switch i32 %101, label %103 [
    i32 0, label %102
    i32 1, label %102
  ]

102:                                              ; preds = %100, %100
  ret void

103:                                              ; preds = %100, %91
  unreachable
}