; Function Attrs: nounwind uwtable
define hidden void @zif_hash_algos(ptr noundef readonly captures(none) %0, ptr noundef %1) #0 {
  %3 = getelementptr inbounds nuw i8, ptr %0, i64 44
  %4 = load i32, ptr %3, align 4, !tbaa !4
  %.not = icmp eq i32 %4, 0
  br i1 %.not, label %.critedge, label %5, !prof !39

5:                                                ; preds = %2
  tail call void @zend_wrong_parameters_none_error() #16
  %6 = load ptr, ptr getelementptr inbounds nuw (i8, ptr @executor_globals, i64 960), align 8, !tbaa !47
  %7 = icmp ne ptr %6, null
  tail call void @llvm.assume(i1 %7)
  br label %.loopexit

.critedge:                                        ; preds = %2
  %8 = tail call ptr @_zend_new_array_0() #16
  store ptr %8, ptr %1, align 8, !tbaa !4
  %9 = getelementptr inbounds nuw i8, ptr %1, i64 8
  store i32 775, ptr %9, align 8, !tbaa !4
  %10 = load ptr, ptr getelementptr inbounds nuw (i8, ptr @php_hash_hashtable, i64 16), align 8, !tbaa !4
  %11 = load i32, ptr getelementptr inbounds nuw (i8, ptr @php_hash_hashtable, i64 24), align 8, !tbaa !92
  %12 = zext i32 %11 to i64
  %13 = getelementptr inbounds nuw %struct._Bucket, ptr %10, i64 %12
  %14 = load i32, ptr getelementptr inbounds nuw (i8, ptr @php_hash_hashtable, i64 8), align 8, !tbaa !4
  %15 = and i32 %14, 4
  %.not17 = icmp eq i32 %15, 0
  tail call void @llvm.assume(i1 %.not17)
  %.not1819 = icmp eq i32 %11, 0
  br i1 %.not1819, label %.loopexit, label %.lr.ph

.lr.ph:                                           ; preds = %.critedge, %29
  %.020 = phi ptr [ %30, %29 ], [ %10, %.critedge ]
  %16 = getelementptr inbounds nuw i8, ptr %.020, i64 8
  %17 = load i8, ptr %16, align 8, !tbaa !4
  %18 = icmp eq i8 %17, 0
  br i1 %18, label %29, label %19, !prof !44

19:                                               ; preds = %.lr.ph
  %20 = getelementptr inbounds nuw i8, ptr %.020, i64 24
  %21 = load ptr, ptr %20, align 8, !tbaa !93
  %22 = getelementptr inbounds nuw i8, ptr %21, i64 4
  %23 = load i32, ptr %22, align 4, !tbaa !4
  %24 = and i32 %23, 64
  %.not.i = icmp eq i32 %24, 0
  br i1 %.not.i, label %25, label %zend_string_copy.exit

25:                                               ; preds = %19
  %26 = load i32, ptr %21, align 4, !tbaa !8
  %27 = add i32 %26, 1
  store i32 %27, ptr %21, align 4, !tbaa !8
  br label %zend_string_copy.exit

zend_string_copy.exit:                            ; preds = %19, %25
  %28 = tail call i32 @add_next_index_str(ptr noundef nonnull %1, ptr noundef nonnull %21) #16
  br label %29

29:                                               ; preds = %.lr.ph, %zend_string_copy.exit
  %30 = getelementptr inbounds nuw i8, ptr %.020, i64 32
  %.not18 = icmp eq ptr %30, %13
  br i1 %.not18, label %.loopexit, label %.lr.ph

.loopexit:                                        ; preds = %29, %.critedge, %5
  ret void
}